target datalayout = "e-m:e-p270:32:32-p271:32:32-p272:64:64-i64:64-i128:128-f80:128-n8:16:32:64-S128"
target triple = "x86_64-pc-linux-gnu"

%struct.curltime = type { i64, i32 }
%struct.Curl_easy = type { i32, i64, i64, ptr, %struct.Curl_llist_node, %struct.Curl_llist_node, i32, i32, %struct.Curl_message, %struct.easy_pollset, %struct.Names, ptr, ptr, ptr, %struct.SingleRequest, %struct.UserDefined, ptr, ptr, %struct.Progress, %struct.UrlState, ptr, %struct.PureInfo, %struct.curl_tlssessioninfo }
%struct.Curl_llist_node = type { ptr, ptr, ptr, ptr }
%struct.Curl_message = type { %struct.Curl_llist_node, %struct.CURLMsg }
%struct.CURLMsg = type { i32, ptr, %union.anon }
%union.anon = type { ptr }
%struct.easy_pollset = type { [5 x i32], i32, [5 x i8] }
%struct.Names = type { ptr, i32 }
%struct.SingleRequest = type <{ i64, i64, i64, i64, %struct.curltime, i32, i32, i32, i32, i64, i32, i32, i32, i32, ptr, ptr, %struct.bufq, i64, i64, ptr, ptr, %union.anon.0, ptr, i8, i32, [3 x i8] }>
%struct.bufq = type { ptr, ptr, ptr, ptr, i64, i64, i64, i32 }
%union.anon.0 = type { ptr }
%struct.UserDefined = type <{ ptr, ptr, ptr, ptr, ptr, ptr, i16, [6 x i8], i64, i64, i64, ptr, ptr, i64, i16, i16, [4 x i8], ptr, ptr, ptr, ptr, ptr, ptr, ptr, ptr, ptr, ptr, ptr, ptr, ptr, ptr, ptr, ptr, ptr, ptr, ptr, ptr, ptr, ptr, ptr, i32, i32, i32, i32, i32, [4 x i8], i64, i64, i64, i64, i64, i64, i64, i64, ptr, ptr, %struct.curl_mimepart, ptr, ptr, i64, i8, i8, i8, [5 x i8], %struct.ssl_config_data, %struct.ssl_config_data, ptr, i16, i8, i8, [4 x i8], %struct.ssl_general_config, i32, i32, i32, [4 x i8], ptr, ptr, i8, [7 x i8], i64, i8, i8, i8, i8, i32, ptr, ptr, ptr, i8, i8, [2 x i8], i32, [63 x ptr], [8 x ptr], i32, i32, i32, [4 x i8], ptr, ptr, ptr, ptr, ptr, i8, [3 x i8], i32, i32, i32, i64, %struct.Curl_data_priority, ptr, ptr, i64, ptr, i64, ptr, ptr, ptr, i8, [3 x i8], i32, i8, i8, i64, [6 x i8] }>
%struct.curl_mimepart = type { ptr, ptr, i32, i32, ptr, ptr, ptr, ptr, ptr, ptr, ptr, ptr, ptr, ptr, ptr, i64, %struct.mime_state, ptr, %struct.mime_encoder_state, i64 }
%struct.mime_state = type { i32, ptr, i64 }
%struct.mime_encoder_state = type { i64, i64, i64, [256 x i8] }
%struct.ssl_config_data = type { %struct.ssl_primary_config, i64, ptr, ptr, ptr, ptr, ptr, ptr, ptr, i16 }
%struct.ssl_primary_config = type { ptr, ptr, ptr, ptr, ptr, ptr, ptr, ptr, ptr, ptr, ptr, ptr, i8, i32, i8, i8 }
%struct.ssl_general_config = type { i64, i32 }
%struct.Curl_data_priority = type { ptr, ptr, i32, i8 }
%struct.Progress = type { i64, %struct.pgrs_dir, %struct.pgrs_dir, i64, i64, i32, i32, i64, i64, i64, i64, i64, i64, i64, i64, i64, %struct.curltime, %struct.curltime, %struct.curltime, %struct.curltime, [6 x i64], [6 x %struct.curltime], i32, i8 }
%struct.pgrs_dir = type { i64, i64, i64, %struct.pgrs_measure }
%struct.pgrs_measure = type { %struct.curltime, i64 }
%struct.UrlState = type { %struct.curltime, i64, i64, %struct.dynbuf, ptr, i64, ptr, i32, i32, i32, ptr, i64, i32, i64, i32, ptr, %struct.digestdata, %struct.digestdata, %struct.auth, %struct.auth, %struct.Curl_async, ptr, %struct.curltime, %struct.Curl_tree, %struct.Curl_llist, [15 x %struct.time_node], ptr, ptr, i64, i64, %struct.Curl_data_priority, ptr, ptr, ptr, %struct.urlpieces, ptr, ptr, ptr, ptr, ptr, i64, %struct.dynbuf, %struct.Curl_llist, [2 x %struct.curl_header], ptr, i32, ptr, ptr, %struct.store_netrc, %struct.dynamically_allocated_data, i8, i8, i8, i8, i32 }
%struct.digestdata = type { ptr, ptr, ptr, ptr, ptr, ptr, i32, i8, i8 }
%struct.auth = type { i64, i64, i64, i8 }
%struct.Curl_async = type { ptr, ptr, ptr, ptr, i32, i32, i8 }
%struct.Curl_tree = type { ptr, ptr, ptr, ptr, %struct.curltime, ptr }
%struct.time_node = type { %struct.Curl_llist_node, %struct.curltime, i32 }
%struct.urlpieces = type { ptr, ptr, ptr, ptr, ptr, ptr, ptr, ptr }
%struct.dynbuf = type { ptr, i64, i64, i64 }
%struct.Curl_llist = type { ptr, ptr, ptr, i64 }
%struct.curl_header = type { ptr, ptr, i64, i64, i32, ptr }
%struct.store_netrc = type { %struct.dynbuf, ptr, i8 }
%struct.dynamically_allocated_data = type { ptr, ptr, ptr, ptr, ptr, ptr, ptr, ptr, ptr, ptr, ptr, ptr, ptr }
%struct.PureInfo = type { i32, i32, i32, i64, i64, i64, i64, i64, ptr, ptr, i64, i32, %struct.ip_quadruple, i32, ptr, i32, %struct.curl_certinfo, i32, i8 }
%struct.ip_quadruple = type { [46 x i8], [46 x i8], i32, i32 }
%struct.curl_certinfo = type { i32, ptr }
%struct.curl_tlssessioninfo = type { i32, ptr }
%struct.pingpong = type { i64, i8, ptr, i64, i64, %struct.curltime, i64, %struct.dynbuf, %struct.dynbuf, i64, i64, ptr, ptr }

@.str.3 = private unnamed_addr constant [36 x i8] c"response reading failed (errno: %d)\00", align 1

; Function Attrs: nounwind uwtable
define internal i32 @pingpong_read(ptr noundef %0, i32 noundef %1, ptr noundef %2, i64 noundef %3, ptr noundef %4) #0 {
  %6 = alloca ptr, align 8
  %7 = alloca i32, align 4
  %8 = alloca ptr, align 8
  %9 = alloca i64, align 8
  %10 = alloca ptr, align 8
  %11 = alloca i32, align 4
  store ptr %0, ptr %6, align 8, !tbaa !4
  store i32 %1, ptr %7, align 4, !tbaa !90
  store ptr %2, ptr %8, align 8, !tbaa !97
  store i64 %3, ptr %9, align 8, !tbaa !86
  store ptr %4, ptr %10, align 8, !tbaa !104
  call void @llvm.lifetime.start.p0(i64 4, ptr %11) #7
  %12 = load ptr, ptr %6, align 8, !tbaa !4
  %13 = load i32, ptr %7, align 4, !tbaa !90
  %14 = load ptr, ptr %8, align 8, !tbaa !97
  %15 = load i64, ptr %9, align 8, !tbaa !86
  %16 = load ptr, ptr %10, align 8, !tbaa !104
  %17 = call i32 @Curl_conn_recv(ptr noundef %12, i32 noundef %13, ptr noundef %14, i64 noundef %15, ptr noundef %16)
  store i32 %17, ptr %11, align 4, !tbaa !90
  %18 = load i32, ptr %11, align 4, !tbaa !90
  call void @llvm.lifetime.end.p0(i64 4, ptr %11) #7
  ret i32 %18
}

; Function Attrs: nounwind uwtable
define dso_local i32 @Curl_pp_readresp(ptr noundef %0, i32 noundef %1, ptr noundef %2, ptr noundef %3, ptr noundef %4) #0 {
  %6 = alloca i32, align 4
  %7 = alloca ptr, align 8
  %8 = alloca i32, align 4
  %9 = alloca ptr, align 8
  %10 = alloca ptr, align 8
  %11 = alloca ptr, align 8
  %12 = alloca ptr, align 8
  %13 = alloca i32, align 4
  %14 = alloca i64, align 8
  %15 = alloca [900 x i8], align 16
  %16 = alloca i64, align 8
  %17 = alloca i32, align 4
  %18 = alloca ptr, align 8
  %19 = alloca ptr, align 8
  %20 = alloca i64, align 8
  store ptr %0, ptr %7, align 8, !tbaa !4
  store i32 %1, ptr %8, align 4, !tbaa !90
  store ptr %2, ptr %9, align 8, !tbaa !9
  store ptr %3, ptr %10, align 8, !tbaa !102
  store ptr %4, ptr %11, align 8, !tbaa !104
  call void @llvm.lifetime.start.p0(i64 8, ptr %12) #7
  %21 = load ptr, ptr %7, align 8, !tbaa !4
  %22 = getelementptr inbounds nuw %struct.Curl_easy, ptr %21, i32 0, i32 3
  %23 = load ptr, ptr %22, align 8, !tbaa !13
  store ptr %23, ptr %12, align 8, !tbaa !82
  call void @llvm.lifetime.start.p0(i64 4, ptr %13) #7
  store i32 0, ptr %13, align 4, !tbaa !90
  call void @llvm.lifetime.start.p0(i64 8, ptr %14) #7
  call void @llvm.lifetime.start.p0(i64 900, ptr %15) #7
  %24 = load ptr, ptr %10, align 8, !tbaa !102
  store i32 0, ptr %24, align 4, !tbaa !90
  %25 = load ptr, ptr %11, align 8, !tbaa !104
  store i64 0, ptr %25, align 8, !tbaa !86
  br label %26

26:                                               ; preds = %191, %5
  store i64 0, ptr %14, align 8, !tbaa !86
  %27 = load ptr, ptr %9, align 8, !tbaa !9
  %28 = getelementptr inbounds nuw %struct.pingpong, ptr %27, i32 0, i32 10
  %29 = load i64, ptr %28, align 8, !tbaa !106
  %30 = icmp ne i64 %29, 0
  br i1 %30, label %31, label %45

31:                                               ; preds = %26
  call void @llvm.lifetime.start.p0(i64 8, ptr %16) #7
  %32 = load ptr, ptr %9, align 8, !tbaa !9
  %33 = getelementptr inbounds nuw %struct.pingpong, ptr %32, i32 0, i32 8
  %34 = call i64 @Curl_dyn_len(ptr noundef %33)
  store i64 %34, ptr %16, align 8, !tbaa !86
  %35 = load ptr, ptr %9, align 8, !tbaa !9
  %36 = getelementptr inbounds nuw %struct.pingpong, ptr %35, i32 0, i32 8
  %37 = load i64, ptr %16, align 8, !tbaa !86
  %38 = load ptr, ptr %9, align 8, !tbaa !9
  %39 = getelementptr inbounds nuw %struct.pingpong, ptr %38, i32 0, i32 10
  %40 = load i64, ptr %39, align 8, !tbaa !106
  %41 = sub i64 %37, %40
  %42 = call i32 @Curl_dyn_tail(ptr noundef %36, i64 noundef %41)
  %43 = load ptr, ptr %9, align 8, !tbaa !9
  %44 = getelementptr inbounds nuw %struct.pingpong, ptr %43, i32 0, i32 10
  store i64 0, ptr %44, align 8, !tbaa !106
  call void @llvm.lifetime.end.p0(i64 8, ptr %16) #7
  br label %45

45:                                               ; preds = %31, %26
  %46 = load ptr, ptr %9, align 8, !tbaa !9
  %47 = getelementptr inbounds nuw %struct.pingpong, ptr %46, i32 0, i32 9
  %48 = load i64, ptr %47, align 8, !tbaa !91
  %49 = icmp ne i64 %48, 0
  br i1 %49, label %93, label %50

50:                                               ; preds = %45
  %51 = load ptr, ptr %7, align 8, !tbaa !4
  %52 = load i32, ptr %8, align 4, !tbaa !90
  %53 = getelementptr inbounds [900 x i8], ptr %15, i64 0, i64 0
  %54 = call i32 @pingpong_read(ptr noundef %51, i32 noundef %52, ptr noundef %53, i64 noundef 900, ptr noundef %14)
  store i32 %54, ptr %13, align 4, !tbaa !90
  %55 = load i32, ptr %13, align 4, !tbaa !90
  %56 = icmp eq i32 %55, 81
  br i1 %56, label %57, label %58

57:                                               ; preds = %50
  store i32 0, ptr %6, align 4
  store i32 1, ptr %17, align 4
  br label %198

58:                                               ; preds = %50
  %59 = load i32, ptr %13, align 4, !tbaa !90
  %60 = icmp ne i32 %59, 0
  br i1 %60, label %61, label %63

61:                                               ; preds = %58
  %62 = load i32, ptr %13, align 4, !tbaa !90
  store i32 %62, ptr %6, align 4
  store i32 1, ptr %17, align 4
  br label %198

63:                                               ; preds = %58
  %64 = load i64, ptr %14, align 8, !tbaa !86
  %65 = icmp sle i64 %64, 0
  br i1 %65, label %66, label %70

66:                                               ; preds = %63
  %67 = load ptr, ptr %7, align 8, !tbaa !4
  %68 = call ptr @__errno_location() #8
  %69 = load i32, ptr %68, align 4, !tbaa !90
  call void (ptr, ptr, ...) @Curl_failf(ptr noundef %67, ptr noundef @.str.3, i32 noundef %69)
  store i32 56, ptr %6, align 4
  store i32 1, ptr %17, align 4
  br label %198

70:                                               ; preds = %63
  %71 = load ptr, ptr %9, align 8, !tbaa !9
  %72 = getelementptr inbounds nuw %struct.pingpong, ptr %71, i32 0, i32 8
  %73 = getelementptr inbounds [900 x i8], ptr %15, i64 0, i64 0
  %74 = load i64, ptr %14, align 8, !tbaa !86
  %75 = call i32 @Curl_dyn_addn(ptr noundef %72, ptr noundef %73, i64 noundef %74)
  store i32 %75, ptr %13, align 4, !tbaa !90
  %76 = load i32, ptr %13, align 4, !tbaa !90
  %77 = icmp ne i32 %76, 0
  br i1 %77, label %78, label %80

78:                                               ; preds = %70
  %79 = load i32, ptr %13, align 4, !tbaa !90
  store i32 %79, ptr %6, align 4
  store i32 1, ptr %17, align 4
  br label %198

80:                                               ; preds = %70
  %81 = load i64, ptr %14, align 8, !tbaa !86
  %82 = trunc i64 %81 to i32
  %83 = load ptr, ptr %7, align 8, !tbaa !4
  %84 = getelementptr inbounds nuw %struct.Curl_easy, ptr %83, i32 0, i32 14
  %85 = getelementptr inbounds nuw %struct.SingleRequest, ptr %84, i32 0, i32 5
  %86 = load i32, ptr %85, align 8, !tbaa !107
  %87 = add i32 %86, %82
  store i32 %87, ptr %85, align 8, !tbaa !107
  %88 = load i64, ptr %14, align 8, !tbaa !86
  %89 = load ptr, ptr %9, align 8, !tbaa !9
  %90 = getelementptr inbounds nuw %struct.pingpong, ptr %89, i32 0, i32 0
  %91 = load i64, ptr %90, align 8, !tbaa !94
  %92 = add i64 %91, %88
  store i64 %92, ptr %90, align 8, !tbaa !94
  br label %93

93:                                               ; preds = %80, %45
  br label %94

94:                                               ; preds = %189, %93
  call void @llvm.lifetime.start.p0(i64 8, ptr %18) #7
  %95 = load ptr, ptr %9, align 8, !tbaa !9
  %96 = getelementptr inbounds nuw %struct.pingpong, ptr %95, i32 0, i32 8
  %97 = call ptr @Curl_dyn_ptr(ptr noundef %96)
  store ptr %97, ptr %18, align 8, !tbaa !97
  call void @llvm.lifetime.start.p0(i64 8, ptr %19) #7
  %98 = load ptr, ptr %18, align 8, !tbaa !97
  %99 = load ptr, ptr %9, align 8, !tbaa !9
  %100 = getelementptr inbounds nuw %struct.pingpong, ptr %99, i32 0, i32 8
  %101 = call i64 @Curl_dyn_len(ptr noundef %100)
  %102 = call ptr @memchr(ptr noundef %98, i32 noundef 10, i64 noundef %101) #9
  store ptr %102, ptr %19, align 8, !tbaa !97
  %103 = load ptr, ptr %19, align 8, !tbaa !97
  %104 = icmp ne ptr %103, null
  br i1 %104, label %105, label %182

105:                                              ; preds = %94
  call void @llvm.lifetime.start.p0(i64 8, ptr %20) #7
  %106 = load ptr, ptr %19, align 8, !tbaa !97
  %107 = load ptr, ptr %18, align 8, !tbaa !97
  %108 = ptrtoint ptr %106 to i64
  %109 = ptrtoint ptr %107 to i64
  %110 = sub i64 %108, %109
  %111 = add nsw i64 %110, 1
  store i64 %111, ptr %20, align 8, !tbaa !86
  %112 = load ptr, ptr %7, align 8, !tbaa !4
  %113 = load ptr, ptr %18, align 8, !tbaa !97
  %114 = load i64, ptr %20, align 8, !tbaa !86
  call void @Curl_debug(ptr noundef %112, i32 noundef 1, ptr noundef %113, i64 noundef %114)
  %115 = load ptr, ptr %7, align 8, !tbaa !4
  %116 = load ptr, ptr %18, align 8, !tbaa !97
  %117 = load i64, ptr %20, align 8, !tbaa !86
  %118 = call i32 @Curl_client_write(ptr noundef %115, i32 noundef 2, ptr noundef %116, i64 noundef %117)
  store i32 %118, ptr %13, align 4, !tbaa !90
  %119 = load i32, ptr %13, align 4, !tbaa !90
  %120 = icmp ne i32 %119, 0
  br i1 %120, label %121, label %123

121:                                              ; preds = %105
  %122 = load i32, ptr %13, align 4, !tbaa !90
  store i32 %122, ptr %6, align 4
  store i32 1, ptr %17, align 4
  br label %179

123:                                              ; preds = %105
  %124 = load ptr, ptr %9, align 8, !tbaa !9
  %125 = getelementptr inbounds nuw %struct.pingpong, ptr %124, i32 0, i32 12
  %126 = load ptr, ptr %125, align 8, !tbaa !108
  %127 = load ptr, ptr %7, align 8, !tbaa !4
  %128 = load ptr, ptr %12, align 8, !tbaa !82
  %129 = load ptr, ptr %18, align 8, !tbaa !97
  %130 = load i64, ptr %20, align 8, !tbaa !86
  %131 = load ptr, ptr %10, align 8, !tbaa !102
  %132 = call zeroext i1 %126(ptr noundef %127, ptr noundef %128, ptr noundef %129, i64 noundef %130, ptr noundef %131)
  br i1 %132, label %133, label %160

133:                                              ; preds = %123
  %134 = load i64, ptr %20, align 8, !tbaa !86
  %135 = load ptr, ptr %9, align 8, !tbaa !9
  %136 = getelementptr inbounds nuw %struct.pingpong, ptr %135, i32 0, i32 10
  store i64 %134, ptr %136, align 8, !tbaa !106
  %137 = load ptr, ptr %9, align 8, !tbaa !9
  %138 = getelementptr inbounds nuw %struct.pingpong, ptr %137, i32 0, i32 8
  %139 = call i64 @Curl_dyn_len(ptr noundef %138)
  %140 = load i64, ptr %20, align 8, !tbaa !86
  %141 = icmp ugt i64 %139, %140
  br i1 %141, label %142, label %150

142:                                              ; preds = %133
  %143 = load ptr, ptr %9, align 8, !tbaa !9
  %144 = getelementptr inbounds nuw %struct.pingpong, ptr %143, i32 0, i32 8
  %145 = call i64 @Curl_dyn_len(ptr noundef %144)
  %146 = load i64, ptr %20, align 8, !tbaa !86
  %147 = sub i64 %145, %146
  %148 = load ptr, ptr %9, align 8, !tbaa !9
  %149 = getelementptr inbounds nuw %struct.pingpong, ptr %148, i32 0, i32 9
  store i64 %147, ptr %149, align 8, !tbaa !91
  br label %153

150:                                              ; preds = %133
  %151 = load ptr, ptr %9, align 8, !tbaa !9
  %152 = getelementptr inbounds nuw %struct.pingpong, ptr %151, i32 0, i32 9
  store i64 0, ptr %152, align 8, !tbaa !91
  br label %153

153:                                              ; preds = %150, %142
  %154 = load ptr, ptr %9, align 8, !tbaa !9
  %155 = getelementptr inbounds nuw %struct.pingpong, ptr %154, i32 0, i32 0
  %156 = load i64, ptr %155, align 8, !tbaa !94
  %157 = load ptr, ptr %11, align 8, !tbaa !104
  store i64 %156, ptr %157, align 8, !tbaa !86
  %158 = load ptr, ptr %9, align 8, !tbaa !9
  %159 = getelementptr inbounds nuw %struct.pingpong, ptr %158, i32 0, i32 0
  store i64 0, ptr %159, align 8, !tbaa !94
  store i64 0, ptr %14, align 8, !tbaa !86
  store i32 4, ptr %17, align 4
  br label %179

160:                                              ; preds = %123
  %161 = load ptr, ptr %9, align 8, !tbaa !9
  %162 = getelementptr inbounds nuw %struct.pingpong, ptr %161, i32 0, i32 8
  %163 = call i64 @Curl_dyn_len(ptr noundef %162)
  %164 = load i64, ptr %20, align 8, !tbaa !86
  %165 = icmp ugt i64 %163, %164
  br i1 %165, label %166, label %175

166:                                              ; preds = %160
  %167 = load ptr, ptr %9, align 8, !tbaa !9
  %168 = getelementptr inbounds nuw %struct.pingpong, ptr %167, i32 0, i32 8
  %169 = load ptr, ptr %9, align 8, !tbaa !9
  %170 = getelementptr inbounds nuw %struct.pingpong, ptr %169, i32 0, i32 8
  %171 = call i64 @Curl_dyn_len(ptr noundef %170)
  %172 = load i64, ptr %20, align 8, !tbaa !86
  %173 = sub i64 %171, %172
  %174 = call i32 @Curl_dyn_tail(ptr noundef %168, i64 noundef %173)
  br label %178

175:                                              ; preds = %160
  %176 = load ptr, ptr %9, align 8, !tbaa !9
  %177 = getelementptr inbounds nuw %struct.pingpong, ptr %176, i32 0, i32 8
  call void @Curl_dyn_reset(ptr noundef %177)
  br label %178

178:                                              ; preds = %175, %166
  store i32 0, ptr %17, align 4
  br label %179

179:                                              ; preds = %178, %153, %121
  call void @llvm.lifetime.end.p0(i64 8, ptr %20) #7
  %180 = load i32, ptr %17, align 4
  switch i32 %180, label %186 [
    i32 0, label %181
  ]

181:                                              ; preds = %179
  br label %185

182:                                              ; preds = %94
  %183 = load ptr, ptr %9, align 8, !tbaa !9
  %184 = getelementptr inbounds nuw %struct.pingpong, ptr %183, i32 0, i32 9
  store i64 0, ptr %184, align 8, !tbaa !91
  store i32 4, ptr %17, align 4
  br label %186

185:                                              ; preds = %181
  store i32 0, ptr %17, align 4
  br label %186

186:                                              ; preds = %185, %182, %179
  call void @llvm.lifetime.end.p0(i64 8, ptr %19) #7
  call void @llvm.lifetime.end.p0(i64 8, ptr %18) #7
  %187 = load i32, ptr %17, align 4
  switch i32 %187, label %198 [
    i32 0, label %188
    i32 4, label %190
  ]

188:                                              ; preds = %186
  br label %189

189:                                              ; preds = %188
  br i1 true, label %94, label %190

190:                                              ; preds = %189, %186
  br label %191

191:                                              ; preds = %190
  %192 = load i64, ptr %14, align 8, !tbaa !86
  %193 = icmp eq i64 %192, 900
  br i1 %193, label %26, label %194, !llvm.loop !109

194:                                              ; preds = %191
  %195 = load ptr, ptr %9, align 8, !tbaa !9
  %196 = getelementptr inbounds nuw %struct.pingpong, ptr %195, i32 0, i32 1
  store i8 0, ptr %196, align 8, !tbaa !96
  %197 = load i32, ptr %13, align 4, !tbaa !90
  store i32 %197, ptr %6, align 4
  store i32 1, ptr %17, align 4
  br label %198

198:                                              ; preds = %194, %186, %78, %66, %61, %57
  call void @llvm.lifetime.end.p0(i64 900, ptr %15) #7
  call void @llvm.lifetime.end.p0(i64 8, ptr %14) #7
  call void @llvm.lifetime.end.p0(i64 4, ptr %13) #7
  call void @llvm.lifetime.end.p0(i64 8, ptr %12) #7
  %199 = load i32, ptr %6, align 4
  ret i32 %199
}