; Function Attrs: nounwind uwtable
define dso_local i32 @Curl_pp_readresp(ptr noundef %0, i32 noundef %1, ptr noundef %2, ptr noundef initializes((0, 4)) %3, ptr noundef writeonly captures(none) initializes((0, 8)) %4) local_unnamed_addr #0 {
  %6 = alloca i64, align 8
  %7 = alloca [900 x i8], align 16
  %8 = getelementptr inbounds nuw i8, ptr %0, i64 24
  %9 = load ptr, ptr %8, align 8, !tbaa !4
  call void @llvm.lifetime.start.p0(i64 8, ptr nonnull %6) #10
  call void @llvm.lifetime.start.p0(i64 900, ptr nonnull %7) #10
  store i32 0, ptr %3, align 4, !tbaa !82
  store i64 0, ptr %4, align 8, !tbaa !87
  %10 = getelementptr inbounds nuw i8, ptr %2, i64 136
  %11 = getelementptr inbounds nuw i8, ptr %2, i64 96
  %12 = getelementptr inbounds nuw i8, ptr %2, i64 128
  %13 = getelementptr inbounds nuw i8, ptr %0, i64 280
  %14 = getelementptr inbounds nuw i8, ptr %2, i64 152
  br label %15

15:                                               ; preds = %._crit_edge, %5
  store i64 0, ptr %6, align 8, !tbaa !87
  %16 = load i64, ptr %10, align 8, !tbaa !91
  %.not = icmp eq i64 %16, 0
  br i1 %.not, label %22, label %17

17:                                               ; preds = %15
  %18 = call i64 @Curl_dyn_len(ptr noundef nonnull %11) #10
  %19 = load i64, ptr %10, align 8, !tbaa !91
  %20 = sub i64 %18, %19
  %21 = call i32 @Curl_dyn_tail(ptr noundef nonnull %11, i64 noundef %20) #10
  store i64 0, ptr %10, align 8, !tbaa !91
  br label %22

22:                                               ; preds = %17, %15
  %23 = load i64, ptr %12, align 8, !tbaa !83
  %.not77 = icmp eq i64 %23, 0
  br i1 %.not77, label %24, label %41

24:                                               ; preds = %22
  %25 = call i32 @Curl_conn_recv(ptr noundef %0, i32 noundef %1, ptr noundef nonnull %7, i64 noundef 900, ptr noundef nonnull %6) #10
  switch i32 %25, label %.thread87 [
    i32 81, label %.thread87.loopexit137
    i32 0, label %26
  ]

26:                                               ; preds = %24
  %27 = load i64, ptr %6, align 8, !tbaa !87
  %28 = icmp slt i64 %27, 1
  br i1 %28, label %29, label %32

29:                                               ; preds = %26
  %30 = tail call ptr @__errno_location() #11
  %31 = load i32, ptr %30, align 4, !tbaa !82
  call void (ptr, ptr, ...) @Curl_failf(ptr noundef %0, ptr noundef nonnull @.str.3, i32 noundef %31) #10
  br label %.thread87

32:                                               ; preds = %26
  %33 = call i32 @Curl_dyn_addn(ptr noundef nonnull %11, ptr noundef nonnull %7, i64 noundef %27) #10
  %.not79 = icmp eq i32 %33, 0
  br i1 %.not79, label %34, label %.thread87

34:                                               ; preds = %32
  %35 = load i64, ptr %6, align 8, !tbaa !87
  %36 = trunc i64 %35 to i32
  %37 = load i32, ptr %13, align 8, !tbaa !92
  %38 = add i32 %37, %36
  store i32 %38, ptr %13, align 8, !tbaa !92
  %39 = load i64, ptr %2, align 8, !tbaa !86
  %40 = add i64 %39, %35
  store i64 %40, ptr %2, align 8, !tbaa !86
  br label %41

41:                                               ; preds = %34, %22
  %42 = call ptr @Curl_dyn_ptr(ptr noundef nonnull %11) #10
  %43 = call i64 @Curl_dyn_len(ptr noundef nonnull %11) #10
  %44 = call ptr @memchr(ptr noundef %42, i32 noundef 10, i64 noundef %43) #12
  %.not80115 = icmp eq ptr %44, null
  br i1 %.not80115, label %._crit_edge, label %.lr.ph

.lr.ph:                                           ; preds = %41, %70
  %45 = phi ptr [ %73, %70 ], [ %44, %41 ]
  %46 = phi ptr [ %71, %70 ], [ %42, %41 ]
  %47 = ptrtoint ptr %45 to i64
  %48 = ptrtoint ptr %46 to i64
  %49 = sub i64 %47, %48
  %50 = add nsw i64 %49, 1
  call void @Curl_debug(ptr noundef %0, i32 noundef 1, ptr noundef %46, i64 noundef %50) #10
  %51 = call i32 @Curl_client_write(ptr noundef %0, i32 noundef 2, ptr noundef %46, i64 noundef %50) #10
  %.not81 = icmp eq i32 %51, 0
  br i1 %.not81, label %52, label %.thread87

52:                                               ; preds = %.lr.ph
  %53 = load ptr, ptr %14, align 8, !tbaa !93
  %54 = call zeroext i1 %53(ptr noundef %0, ptr noundef %9, ptr noundef %46, i64 noundef %50, ptr noundef nonnull %3) #10
  br i1 %54, label %55, label %62

55:                                               ; preds = %52
  store i64 %50, ptr %10, align 8, !tbaa !91
  %56 = call i64 @Curl_dyn_len(ptr noundef nonnull %11) #10
  %57 = icmp ugt i64 %56, %50
  br i1 %57, label %58, label %.thread91

58:                                               ; preds = %55
  %59 = call i64 @Curl_dyn_len(ptr noundef nonnull %11) #10
  %60 = sub i64 %59, %50
  br label %.thread91

.thread91:                                        ; preds = %58, %55
  %storemerge = phi i64 [ %60, %58 ], [ 0, %55 ]
  store i64 %storemerge, ptr %12, align 8, !tbaa !83
  %61 = load i64, ptr %2, align 8, !tbaa !86
  store i64 %61, ptr %4, align 8, !tbaa !87
  store i64 0, ptr %2, align 8, !tbaa !86
  br label %.loopexit

62:                                               ; preds = %52
  %63 = call i64 @Curl_dyn_len(ptr noundef nonnull %11) #10
  %64 = icmp ugt i64 %63, %50
  br i1 %64, label %65, label %69

65:                                               ; preds = %62
  %66 = call i64 @Curl_dyn_len(ptr noundef nonnull %11) #10
  %67 = sub i64 %66, %50
  %68 = call i32 @Curl_dyn_tail(ptr noundef nonnull %11, i64 noundef %67) #10
  br label %70

69:                                               ; preds = %62
  call void @Curl_dyn_reset(ptr noundef nonnull %11) #10
  br label %70

70:                                               ; preds = %69, %65
  %71 = call ptr @Curl_dyn_ptr(ptr noundef nonnull %11) #10
  %72 = call i64 @Curl_dyn_len(ptr noundef nonnull %11) #10
  %73 = call ptr @memchr(ptr noundef %71, i32 noundef 10, i64 noundef %72) #12
  %.not80 = icmp eq ptr %73, null
  br i1 %.not80, label %._crit_edge, label %.lr.ph

._crit_edge:                                      ; preds = %70, %41
  store i64 0, ptr %12, align 8, !tbaa !83
  %.pr = load i64, ptr %6, align 8, !tbaa !87
  %74 = icmp eq i64 %.pr, 900
  br i1 %74, label %15, label %.loopexit, !llvm.loop !94

.loopexit:                                        ; preds = %._crit_edge, %.thread91
  %75 = getelementptr inbounds nuw i8, ptr %2, i64 8
  store i8 0, ptr %75, align 8, !tbaa !88
  br label %.thread87

.thread87.loopexit137:                            ; preds = %24
  br label %.thread87

.thread87:                                        ; preds = %32, %.lr.ph, %24, %.thread87.loopexit137, %.loopexit, %29
  %.1 = phi i32 [ 0, %.loopexit ], [ 56, %29 ], [ %25, %24 ], [ %51, %.lr.ph ], [ %33, %32 ], [ 0, %.thread87.loopexit137 ]
  call void @llvm.lifetime.end.p0(i64 900, ptr nonnull %7) #10
  call void @llvm.lifetime.end.p0(i64 8, ptr nonnull %6) #10
  ret i32 %.1
}